target datalayout = "e-m:e-p270:32:32-p271:32:32-p272:64:64-i64:64-i128:128-f80:128-n8:16:32:64-S128"
target triple = "x86_64-pc-linux-gnu"

%struct.H5O_loc_t = type { ptr, i64, i8 }
%struct.H5A_t = type { %struct.H5O_shared_t, %struct.H5O_loc_t, i8, %struct.H5G_name_t, ptr }
%struct.H5O_shared_t = type { i32, ptr, i32, %union.anon }
%union.anon = type { %struct.H5O_mesg_loc_t }
%struct.H5O_mesg_loc_t = type { i32, i64 }
%struct.H5G_name_t = type { ptr, ptr, i32 }
%struct.H5A_shared_t = type { i8, ptr, i32, ptr, i64, ptr, i64, ptr, i64, i32, i32 }
%struct.H5A_dense_file_cp_ud_t = type { ptr, ptr, ptr, ptr, ptr, ptr }

@.str.3 = private unnamed_addr constant [100 x i8] c"generated/home/dtcxzyw/WorkSpace/Projects/compilers/llvm-opt-benchmark/bench/hdf5/hdf5/src/H5Aint.c\00", align 1
@H5E_ATTR_g = external global i64, align 8
@H5E_CANTINIT_g = external global i64, align 8
@H5E_DATATYPE_g = external global i64, align 8
@H5E_CANTCOPY_g = external global i64, align 8
@H5E_OHDR_g = external global i64, align 8
@H5E_CANTINSERT_g = external global i64, align 8
@H5E_CLOSEERROR_g = external global i64, align 8
@.str.72 = private unnamed_addr constant [29 x i8] c"cannot mark datatype on disk\00", align 1
@.str.98 = private unnamed_addr constant [21 x i8] c"can't copy attribute\00", align 1
@__func__.H5A__dense_post_copy_file_cb = private unnamed_addr constant [29 x i8] c"H5A__dense_post_copy_file_cb\00", align 1
@.str.101 = private unnamed_addr constant [34 x i8] c"unable to reset attribute sharing\00", align 1
@.str.102 = private unnamed_addr constant [31 x i8] c"unable to add to dense storage\00", align 1
@.str.103 = private unnamed_addr constant [34 x i8] c"can't close destination attribute\00", align 1

; Function Attrs: nounwind uwtable
define internal i32 @H5A__dense_post_copy_file_cb(ptr noundef %0, ptr noundef %1) #0 {
  %3 = alloca ptr, align 8
  %4 = alloca ptr, align 8
  %5 = alloca ptr, align 8
  %6 = alloca ptr, align 8
  %7 = alloca i32, align 4
  %8 = alloca i8, align 1
  %9 = alloca i64, align 8
  store ptr %0, ptr %3, align 8
  store ptr %1, ptr %4, align 8
  %10 = load ptr, ptr %4, align 8
  store ptr %10, ptr %5, align 8
  store ptr null, ptr %6, align 8
  store i32 0, ptr %7, align 4
  store i8 0, ptr %8, align 1
  %11 = load ptr, ptr %3, align 8
  %12 = getelementptr inbounds %struct.H5A_t, ptr %11, i32 0, i32 4
  %13 = load ptr, ptr %12, align 8
  %14 = getelementptr inbounds %struct.H5A_shared_t, ptr %13, i32 0, i32 3
  %15 = load ptr, ptr %14, align 8
  %16 = load ptr, ptr %5, align 8
  %17 = getelementptr inbounds %struct.H5A_dense_file_cp_ud_t, ptr %16, i32 0, i32 4
  %18 = load ptr, ptr %17, align 8
  %19 = getelementptr inbounds %struct.H5O_loc_t, ptr %18, i32 0, i32 0
  %20 = load ptr, ptr %19, align 8
  %21 = call ptr @H5F_get_vol_obj(ptr noundef %20)
  %22 = call i32 @H5T_set_loc(ptr noundef %15, ptr noundef %21, i32 noundef 2)
  %23 = icmp slt i32 %22, 0
  br i1 %23, label %24, label %39

24:                                               ; preds = %2
  br label %25

25:                                               ; preds = %24
  br label %26

26:                                               ; preds = %25
  br label %27

27:                                               ; preds = %26
  %28 = load i64, ptr @H5E_DATATYPE_g, align 8
  %29 = load i64, ptr @H5E_CANTINIT_g, align 8
  %30 = call i32 (ptr, ptr, i32, i64, i64, ptr, ...) @H5E_printf_stack(ptr noundef @.str.3, ptr noundef @__func__.H5A__dense_post_copy_file_cb, i32 noundef 2409, i64 noundef %28, i64 noundef %29, ptr noundef @.str.72)
  br label %31

31:                                               ; preds = %27
  store i8 1, ptr %8, align 1
  %32 = load i8, ptr %8, align 1
  %33 = trunc i8 %32 to i1
  %34 = zext i1 %33 to i8
  store i8 %34, ptr %8, align 1
  br label %35

35:                                               ; preds = %31
  br label %36

36:                                               ; preds = %35
  store i32 -1, ptr %7, align 4
  br label %143

37:                                               ; No predecessors!
  br label %38

38:                                               ; preds = %37
  br label %39

39:                                               ; preds = %38, %2
  %40 = load ptr, ptr %3, align 8
  %41 = load ptr, ptr %5, align 8
  %42 = getelementptr inbounds %struct.H5A_dense_file_cp_ud_t, ptr %41, i32 0, i32 1
  %43 = load ptr, ptr %42, align 8
  %44 = load ptr, ptr %5, align 8
  %45 = getelementptr inbounds %struct.H5A_dense_file_cp_ud_t, ptr %44, i32 0, i32 2
  %46 = load ptr, ptr %45, align 8
  %47 = load ptr, ptr %5, align 8
  %48 = getelementptr inbounds %struct.H5A_dense_file_cp_ud_t, ptr %47, i32 0, i32 3
  %49 = load ptr, ptr %48, align 8
  %50 = call ptr @H5A__attr_copy_file(ptr noundef %40, ptr noundef %43, ptr noundef %46, ptr noundef %49)
  store ptr %50, ptr %6, align 8
  %51 = icmp eq ptr null, %50
  br i1 %51, label %52, label %67

52:                                               ; preds = %39
  br label %53

53:                                               ; preds = %52
  br label %54

54:                                               ; preds = %53
  br label %55

55:                                               ; preds = %54
  %56 = load i64, ptr @H5E_ATTR_g, align 8
  %57 = load i64, ptr @H5E_CANTCOPY_g, align 8
  %58 = call i32 (ptr, ptr, i32, i64, i64, ptr, ...) @H5E_printf_stack(ptr noundef @.str.3, ptr noundef @__func__.H5A__dense_post_copy_file_cb, i32 noundef 2413, i64 noundef %56, i64 noundef %57, ptr noundef @.str.98)
  br label %59

59:                                               ; preds = %55
  store i8 1, ptr %8, align 1
  %60 = load i8, ptr %8, align 1
  %61 = trunc i8 %60 to i1
  %62 = zext i1 %61 to i8
  store i8 %62, ptr %8, align 1
  br label %63

63:                                               ; preds = %59
  br label %64

64:                                               ; preds = %63
  store i32 -1, ptr %7, align 4
  br label %143

65:                                               ; No predecessors!
  br label %66

66:                                               ; preds = %65
  br label %67

67:                                               ; preds = %66, %39
  %68 = load ptr, ptr %5, align 8
  %69 = getelementptr inbounds %struct.H5A_dense_file_cp_ud_t, ptr %68, i32 0, i32 4
  %70 = load ptr, ptr %69, align 8
  %71 = load ptr, ptr %3, align 8
  %72 = load ptr, ptr %5, align 8
  %73 = getelementptr inbounds %struct.H5A_dense_file_cp_ud_t, ptr %72, i32 0, i32 5
  %74 = load ptr, ptr %73, align 8
  %75 = load ptr, ptr %6, align 8
  %76 = load ptr, ptr %5, align 8
  %77 = getelementptr inbounds %struct.H5A_dense_file_cp_ud_t, ptr %76, i32 0, i32 3
  %78 = load ptr, ptr %77, align 8
  %79 = call i32 @H5A__attr_post_copy_file(ptr noundef %70, ptr noundef %71, ptr noundef %74, ptr noundef %75, ptr noundef %78)
  %80 = icmp slt i32 %79, 0
  br i1 %80, label %81, label %96

81:                                               ; preds = %67
  br label %82

82:                                               ; preds = %81
  br label %83

83:                                               ; preds = %82
  br label %84

84:                                               ; preds = %83
  %85 = load i64, ptr @H5E_ATTR_g, align 8
  %86 = load i64, ptr @H5E_CANTCOPY_g, align 8
  %87 = call i32 (ptr, ptr, i32, i64, i64, ptr, ...) @H5E_printf_stack(ptr noundef @.str.3, ptr noundef @__func__.H5A__dense_post_copy_file_cb, i32 noundef 2416, i64 noundef %85, i64 noundef %86, ptr noundef @.str.98)
  br label %88

88:                                               ; preds = %84
  store i8 1, ptr %8, align 1
  %89 = load i8, ptr %8, align 1
  %90 = trunc i8 %89 to i1
  %91 = zext i1 %90 to i8
  store i8 %91, ptr %8, align 1
  br label %92

92:                                               ; preds = %88
  br label %93

93:                                               ; preds = %92
  store i32 -1, ptr %7, align 4
  br label %143

94:                                               ; No predecessors!
  br label %95

95:                                               ; preds = %94
  br label %96

96:                                               ; preds = %95, %67
  %97 = load ptr, ptr %6, align 8
  %98 = call i32 @H5O_msg_reset_share(i32 noundef 12, ptr noundef %97)
  %99 = icmp slt i32 %98, 0
  br i1 %99, label %100, label %115

100:                                              ; preds = %96
  br label %101

101:                                              ; preds = %100
  br label %102

102:                                              ; preds = %101
  br label %103

103:                                              ; preds = %102
  %104 = load i64, ptr @H5E_OHDR_g, align 8
  %105 = load i64, ptr @H5E_CANTINIT_g, align 8
  %106 = call i32 (ptr, ptr, i32, i64, i64, ptr, ...) @H5E_printf_stack(ptr noundef @.str.3, ptr noundef @__func__.H5A__dense_post_copy_file_cb, i32 noundef 2420, i64 noundef %104, i64 noundef %105, ptr noundef @.str.101)
  br label %107

107:                                              ; preds = %103
  store i8 1, ptr %8, align 1
  %108 = load i8, ptr %8, align 1
  %109 = trunc i8 %108 to i1
  %110 = zext i1 %109 to i8
  store i8 %110, ptr %8, align 1
  br label %111

111:                                              ; preds = %107
  br label %112

112:                                              ; preds = %111
  store i32 -1, ptr %7, align 4
  br label %143

113:                                              ; No predecessors!
  br label %114

114:                                              ; preds = %113
  br label %115

115:                                              ; preds = %114, %96
  store i64 -1, ptr %9, align 8
  call void @H5AC_tag(i64 noundef 2, ptr noundef %9)
  %116 = load ptr, ptr %5, align 8
  %117 = getelementptr inbounds %struct.H5A_dense_file_cp_ud_t, ptr %116, i32 0, i32 1
  %118 = load ptr, ptr %117, align 8
  %119 = load ptr, ptr %5, align 8
  %120 = getelementptr inbounds %struct.H5A_dense_file_cp_ud_t, ptr %119, i32 0, i32 0
  %121 = load ptr, ptr %120, align 8
  %122 = load ptr, ptr %6, align 8
  %123 = call i32 @H5A__dense_insert(ptr noundef %118, ptr noundef %121, ptr noundef %122)
  %124 = icmp slt i32 %123, 0
  br i1 %124, label %125, label %141

125:                                              ; preds = %115
  br label %126

126:                                              ; preds = %125
  %127 = load i64, ptr %9, align 8
  call void @H5AC_tag(i64 noundef %127, ptr noundef null)
  br label %128

128:                                              ; preds = %126
  br label %129

129:                                              ; preds = %128
  %130 = load i64, ptr @H5E_OHDR_g, align 8
  %131 = load i64, ptr @H5E_CANTINSERT_g, align 8
  %132 = call i32 (ptr, ptr, i32, i64, i64, ptr, ...) @H5E_printf_stack(ptr noundef @.str.3, ptr noundef @__func__.H5A__dense_post_copy_file_cb, i32 noundef 2427, i64 noundef %130, i64 noundef %131, ptr noundef @.str.102)
  br label %133

133:                                              ; preds = %129
  store i8 1, ptr %8, align 1
  %134 = load i8, ptr %8, align 1
  %135 = trunc i8 %134 to i1
  %136 = zext i1 %135 to i8
  store i8 %136, ptr %8, align 1
  br label %137

137:                                              ; preds = %133
  br label %138

138:                                              ; preds = %137
  store i32 -1, ptr %7, align 4
  br label %143

139:                                              ; No predecessors!
  br label %140

140:                                              ; preds = %139
  br label %141

141:                                              ; preds = %140, %115
  %142 = load i64, ptr %9, align 8
  call void @H5AC_tag(i64 noundef %142, ptr noundef null)
  br label %143

143:                                              ; preds = %141, %138, %112, %93, %64, %36
  %144 = load ptr, ptr %6, align 8
  %145 = icmp ne ptr %144, null
  br i1 %145, label %146, label %163

146:                                              ; preds = %143
  %147 = load ptr, ptr %6, align 8
  %148 = call i32 @H5A__close(ptr noundef %147)
  %149 = icmp slt i32 %148, 0
  br i1 %149, label %150, label %163

150:                                              ; preds = %146
  br label %151

151:                                              ; preds = %150
  br label %152

152:                                              ; preds = %151
  br label %153

153:                                              ; preds = %152
  %154 = load i64, ptr @H5E_ATTR_g, align 8
  %155 = load i64, ptr @H5E_CLOSEERROR_g, align 8
  %156 = call i32 (ptr, ptr, i32, i64, i64, ptr, ...) @H5E_printf_stack(ptr noundef @.str.3, ptr noundef @__func__.H5A__dense_post_copy_file_cb, i32 noundef 2434, i64 noundef %154, i64 noundef %155, ptr noundef @.str.103)
  br label %157

157:                                              ; preds = %153
  store i8 1, ptr %8, align 1
  %158 = load i8, ptr %8, align 1
  %159 = trunc i8 %158 to i1
  %160 = zext i1 %159 to i8
  store i8 %160, ptr %8, align 1
  br label %161

161:                                              ; preds = %157
  store i32 -1, ptr %7, align 4
  br label %162

162:                                              ; preds = %161
  br label %163

163:                                              ; preds = %162, %146, %143
  %164 = load i32, ptr %7, align 4
  ret i32 %164
}