; Function Attrs: nounwind uwtable
define internal range(i32 -1, 1) i32 @H5A__dense_post_copy_file_cb(ptr nocapture noundef readonly %0, ptr nocapture noundef readonly %1) #0 {
  %3 = alloca i64, align 8
  %4 = getelementptr inbounds i8, ptr %0, i64 96
  %5 = load ptr, ptr %4, align 8
  %6 = getelementptr inbounds i8, ptr %5, i64 24
  %7 = load ptr, ptr %6, align 8
  %8 = getelementptr inbounds i8, ptr %1, i64 32
  %9 = load ptr, ptr %8, align 8
  %10 = load ptr, ptr %9, align 8
  %11 = tail call ptr @H5F_get_vol_obj(ptr noundef %10) #13
  %12 = tail call i32 @H5T_set_loc(ptr noundef %7, ptr noundef %11, i32 noundef 2) #13
  %13 = icmp slt i32 %12, 0
  br i1 %13, label %14, label %18

14:                                               ; preds = %2
  %15 = load i64, ptr @H5E_DATATYPE_g, align 8
  %16 = load i64, ptr @H5E_CANTINIT_g, align 8
  %17 = tail call i32 (ptr, ptr, i32, i64, i64, ptr, ...) @H5E_printf_stack(ptr noundef nonnull @.str.3, ptr noundef nonnull @__func__.H5A__dense_post_copy_file_cb, i32 noundef 2409, i64 noundef %15, i64 noundef %16, ptr noundef nonnull @.str.72) #13
  br label %65

18:                                               ; preds = %2
  %19 = getelementptr inbounds i8, ptr %1, i64 8
  %20 = load ptr, ptr %19, align 8
  %21 = getelementptr inbounds i8, ptr %1, i64 16
  %22 = load ptr, ptr %21, align 8
  %23 = tail call ptr @H5A__attr_copy_file(ptr noundef nonnull %0, ptr noundef %20, ptr noundef %22, ptr poison)
  %24 = icmp eq ptr %23, null
  br i1 %24, label %25, label %29

25:                                               ; preds = %18
  %26 = load i64, ptr @H5E_ATTR_g, align 8
  %27 = load i64, ptr @H5E_CANTCOPY_g, align 8
  %28 = tail call i32 (ptr, ptr, i32, i64, i64, ptr, ...) @H5E_printf_stack(ptr noundef nonnull @.str.3, ptr noundef nonnull @__func__.H5A__dense_post_copy_file_cb, i32 noundef 2413, i64 noundef %26, i64 noundef %27, ptr noundef nonnull @.str.98) #13
  br label %65

29:                                               ; preds = %18
  %30 = getelementptr inbounds i8, ptr %1, i64 24
  %31 = load ptr, ptr %8, align 8
  %32 = getelementptr inbounds i8, ptr %1, i64 40
  %33 = load ptr, ptr %32, align 8
  %34 = load ptr, ptr %30, align 8
  %35 = tail call i32 @H5A__attr_post_copy_file(ptr noundef %31, ptr noundef nonnull %0, ptr noundef %33, ptr noundef nonnull %23, ptr noundef %34)
  %36 = icmp slt i32 %35, 0
  br i1 %36, label %37, label %41

37:                                               ; preds = %29
  %38 = load i64, ptr @H5E_ATTR_g, align 8
  %39 = load i64, ptr @H5E_CANTCOPY_g, align 8
  %40 = tail call i32 (ptr, ptr, i32, i64, i64, ptr, ...) @H5E_printf_stack(ptr noundef nonnull @.str.3, ptr noundef nonnull @__func__.H5A__dense_post_copy_file_cb, i32 noundef 2416, i64 noundef %38, i64 noundef %39, ptr noundef nonnull @.str.98) #13
  br label %58

41:                                               ; preds = %29
  %42 = tail call i32 @H5O_msg_reset_share(i32 noundef 12, ptr noundef nonnull %23) #13
  %43 = icmp slt i32 %42, 0
  br i1 %43, label %44, label %48

44:                                               ; preds = %41
  %45 = load i64, ptr @H5E_OHDR_g, align 8
  %46 = load i64, ptr @H5E_CANTINIT_g, align 8
  %47 = tail call i32 (ptr, ptr, i32, i64, i64, ptr, ...) @H5E_printf_stack(ptr noundef nonnull @.str.3, ptr noundef nonnull @__func__.H5A__dense_post_copy_file_cb, i32 noundef 2420, i64 noundef %45, i64 noundef %46, ptr noundef nonnull @.str.101) #13
  br label %58

48:                                               ; preds = %41
  store i64 -1, ptr %3, align 8
  call void @H5AC_tag(i64 noundef 2, ptr noundef nonnull %3) #13
  %49 = load ptr, ptr %19, align 8
  %50 = load ptr, ptr %1, align 8
  %51 = call i32 @H5A__dense_insert(ptr noundef %49, ptr noundef %50, ptr noundef nonnull %23) #13
  %52 = icmp slt i32 %51, 0
  %53 = load i64, ptr %3, align 8
  call void @H5AC_tag(i64 noundef %53, ptr noundef null) #13
  br i1 %52, label %54, label %58

54:                                               ; preds = %48
  %55 = load i64, ptr @H5E_OHDR_g, align 8
  %56 = load i64, ptr @H5E_CANTINSERT_g, align 8
  %57 = call i32 (ptr, ptr, i32, i64, i64, ptr, ...) @H5E_printf_stack(ptr noundef nonnull @.str.3, ptr noundef nonnull @__func__.H5A__dense_post_copy_file_cb, i32 noundef 2427, i64 noundef %55, i64 noundef %56, ptr noundef nonnull @.str.102) #13
  br label %58

58:                                               ; preds = %48, %37, %44, %54
  %.0.ph = phi i32 [ -1, %54 ], [ -1, %44 ], [ -1, %37 ], [ 0, %48 ]
  %59 = call i32 @H5A__close(ptr noundef nonnull %23)
  %60 = icmp slt i32 %59, 0
  br i1 %60, label %61, label %65

61:                                               ; preds = %58
  %62 = load i64, ptr @H5E_ATTR_g, align 8
  %63 = load i64, ptr @H5E_CLOSEERROR_g, align 8
  %64 = call i32 (ptr, ptr, i32, i64, i64, ptr, ...) @H5E_printf_stack(ptr noundef nonnull @.str.3, ptr noundef nonnull @__func__.H5A__dense_post_copy_file_cb, i32 noundef 2434, i64 noundef %62, i64 noundef %63, ptr noundef nonnull @.str.103) #13
  br label %65

65:                                               ; preds = %14, %25, %61, %58
  %.1 = phi i32 [ -1, %61 ], [ %.0.ph, %58 ], [ -1, %14 ], [ -1, %25 ]
  ret i32 %.1
}